; Function Attrs: nounwind uwtable
define dso_local range(i32 -9, 1) i32 @fdt_property(ptr noundef %0, ptr noundef %1, ptr noundef readonly captures(none) %2, i32 noundef %3) local_unnamed_addr #7 {
  %5 = alloca ptr, align 8
  call void @llvm.lifetime.start.p0(i64 8, ptr nonnull %5) #11
  store ptr null, ptr %5, align 8, !annotation !4
  %6 = call i32 @fdt_property_placeholder(ptr noundef %0, ptr noundef %1, i32 noundef %3, ptr noundef nonnull %5)
  %.not = icmp eq i32 %6, 0
  br i1 %.not, label %7, label %10

7:                                                ; preds = %4
  %8 = load ptr, ptr %5, align 8
  %9 = sext i32 %3 to i64
  tail call void @llvm.memcpy.p0.p0.i64(ptr align 1 %8, ptr align 1 %2, i64 %9, i1 false)
  br label %10

10:                                               ; preds = %4, %7
  call void @llvm.lifetime.end.p0(i64 8, ptr nonnull %5) #11
  ret i32 %6
}